target datalayout = "e-m:e-p270:32:32-p271:32:32-p272:64:64-i64:64-i128:128-f80:128-n8:16:32:64-S128"
target triple = "x86_64-pc-linux-gnu"

%struct.ma_vfs_callbacks = type { ptr, ptr, ptr, ptr, ptr, ptr, ptr, ptr }

; Function Attrs: nounwind uwtable
define hidden i32 @ma_vfs_write(ptr noundef %0, ptr noundef %1, ptr noundef %2, i64 noundef %3, ptr noundef %4) #0 {
  %6 = alloca i32, align 4
  %7 = alloca ptr, align 8
  %8 = alloca ptr, align 8
  %9 = alloca ptr, align 8
  %10 = alloca i64, align 8
  %11 = alloca ptr, align 8
  %12 = alloca ptr, align 8
  %13 = alloca i32, align 4
  store ptr %0, ptr %7, align 8
  store ptr %1, ptr %8, align 8
  store ptr %2, ptr %9, align 8
  store i64 %3, ptr %10, align 8
  store ptr %4, ptr %11, align 8
  call void @llvm.lifetime.start.p0(i64 8, ptr %12) #21
  %14 = load ptr, ptr %7, align 8
  store ptr %14, ptr %12, align 8
  %15 = load ptr, ptr %11, align 8
  %16 = icmp ne ptr %15, null
  br i1 %16, label %17, label %19

17:                                               ; preds = %5
  %18 = load ptr, ptr %11, align 8
  store i64 0, ptr %18, align 8
  br label %19

19:                                               ; preds = %17, %5
  %20 = load ptr, ptr %7, align 8
  %21 = icmp eq ptr %20, null
  br i1 %21, label %28, label %22

22:                                               ; preds = %19
  %23 = load ptr, ptr %8, align 8
  %24 = icmp eq ptr %23, null
  br i1 %24, label %28, label %25

25:                                               ; preds = %22
  %26 = load ptr, ptr %9, align 8
  %27 = icmp eq ptr %26, null
  br i1 %27, label %28, label %29

28:                                               ; preds = %25, %22, %19
  store i32 -2, ptr %6, align 4
  store i32 1, ptr %13, align 4
  br label %45

29:                                               ; preds = %25
  %30 = load ptr, ptr %12, align 8
  %31 = getelementptr inbounds nuw %struct.ma_vfs_callbacks, ptr %30, i32 0, i32 4
  %32 = load ptr, ptr %31, align 8
  %33 = icmp eq ptr %32, null
  br i1 %33, label %34, label %35

34:                                               ; preds = %29
  store i32 -29, ptr %6, align 4
  store i32 1, ptr %13, align 4
  br label %45

35:                                               ; preds = %29
  %36 = load ptr, ptr %12, align 8
  %37 = getelementptr inbounds nuw %struct.ma_vfs_callbacks, ptr %36, i32 0, i32 4
  %38 = load ptr, ptr %37, align 8
  %39 = load ptr, ptr %7, align 8
  %40 = load ptr, ptr %8, align 8
  %41 = load ptr, ptr %9, align 8
  %42 = load i64, ptr %10, align 8
  %43 = load ptr, ptr %11, align 8
  %44 = call i32 %38(ptr noundef %39, ptr noundef %40, ptr noundef %41, i64 noundef %42, ptr noundef %43)
  store i32 %44, ptr %6, align 4
  store i32 1, ptr %13, align 4
  br label %45

45:                                               ; preds = %35, %34, %28
  call void @llvm.lifetime.end.p0(i64 8, ptr %12) #21
  %46 = load i32, ptr %6, align 4
  ret i32 %46
}