; Function Attrs: nounwind uwtable
define hidden i32 @ma_vfs_write(ptr noundef %0, ptr noundef %1, ptr noundef %2, i64 noundef %3, ptr noundef %4) local_unnamed_addr #7 {
  %.not = icmp eq ptr %4, null
  br i1 %.not, label %7, label %6

6:                                                ; preds = %5
  store i64 0, ptr %4, align 8
  br label %7

7:                                                ; preds = %6, %5
  %8 = icmp eq ptr %0, null
  %9 = icmp eq ptr %1, null
  %or.cond = or i1 %8, %9
  %10 = icmp eq ptr %2, null
  %or.cond3 = or i1 %or.cond, %10
  br i1 %or.cond3, label %17, label %11

11:                                               ; preds = %7
  %12 = getelementptr inbounds nuw i8, ptr %0, i64 32
  %13 = load ptr, ptr %12, align 8
  %14 = icmp eq ptr %13, null
  br i1 %14, label %17, label %15

15:                                               ; preds = %11
  %16 = tail call i32 %13(ptr noundef nonnull %0, ptr noundef nonnull %1, ptr noundef nonnull %2, i64 noundef %3, ptr noundef %4) #72
  br label %17

17:                                               ; preds = %11, %7, %15
  %.0 = phi i32 [ %16, %15 ], [ -2, %7 ], [ -29, %11 ]
  ret i32 %.0
}